target datalayout = "e-m:e-p270:32:32-p271:32:32-p272:64:64-i64:64-i128:128-f80:128-n8:16:32:64-S128"
target triple = "x86_64-pc-linux-gnu"

%"struct.grpc_core::GrpcLbServer" = type { i32, [16 x i8], i32, [50 x i8], i8 }

; Function Attrs: mustprogress nounwind uwtable
define noundef zeroext i1 @_ZNK9grpc_core12GrpcLbServereqERKS0_(ptr noundef nonnull align 4 dereferenceable(76) %0, ptr noundef nonnull align 4 dereferenceable(76) %1) #4 align 2 {
  %3 = alloca i1, align 1
  %4 = alloca ptr, align 8
  %5 = alloca ptr, align 8
  %6 = alloca i32, align 4
  %7 = alloca i32, align 4
  store ptr %0, ptr %4, align 8, !tbaa !3
  store ptr %1, ptr %5, align 8, !tbaa !3
  %8 = load ptr, ptr %4, align 8
  %9 = getelementptr inbounds nuw %"struct.grpc_core::GrpcLbServer", ptr %8, i32 0, i32 0
  %10 = load i32, ptr %9, align 4, !tbaa !8
  %11 = load ptr, ptr %5, align 8, !tbaa !3
  %12 = getelementptr inbounds nuw %"struct.grpc_core::GrpcLbServer", ptr %11, i32 0, i32 0
  %13 = load i32, ptr %12, align 4, !tbaa !8
  %14 = icmp ne i32 %10, %13
  br i1 %14, label %15, label %16

15:                                               ; preds = %2
  store i1 false, ptr %3, align 1
  br label %59

16:                                               ; preds = %2
  call void @llvm.lifetime.start.p0(i64 4, ptr %6) #3
  %17 = getelementptr inbounds nuw %"struct.grpc_core::GrpcLbServer", ptr %8, i32 0, i32 1
  %18 = getelementptr inbounds [16 x i8], ptr %17, i64 0, i64 0
  %19 = load ptr, ptr %5, align 8, !tbaa !3
  %20 = getelementptr inbounds nuw %"struct.grpc_core::GrpcLbServer", ptr %19, i32 0, i32 1
  %21 = getelementptr inbounds [16 x i8], ptr %20, i64 0, i64 0
  %22 = getelementptr inbounds nuw %"struct.grpc_core::GrpcLbServer", ptr %8, i32 0, i32 0
  %23 = load i32, ptr %22, align 4, !tbaa !8
  %24 = sext i32 %23 to i64
  %25 = call i32 @memcmp(ptr noundef %18, ptr noundef %21, i64 noundef %24) #20
  store i32 %25, ptr %6, align 4, !tbaa !12
  %26 = load i32, ptr %6, align 4, !tbaa !12
  %27 = icmp ne i32 %26, 0
  br i1 %27, label %28, label %29

28:                                               ; preds = %16
  store i1 false, ptr %3, align 1
  store i32 1, ptr %7, align 4
  br label %58

29:                                               ; preds = %16
  %30 = getelementptr inbounds nuw %"struct.grpc_core::GrpcLbServer", ptr %8, i32 0, i32 2
  %31 = load i32, ptr %30, align 4, !tbaa !13
  %32 = load ptr, ptr %5, align 8, !tbaa !3
  %33 = getelementptr inbounds nuw %"struct.grpc_core::GrpcLbServer", ptr %32, i32 0, i32 2
  %34 = load i32, ptr %33, align 4, !tbaa !13
  %35 = icmp ne i32 %31, %34
  br i1 %35, label %36, label %37

36:                                               ; preds = %29
  store i1 false, ptr %3, align 1
  store i32 1, ptr %7, align 4
  br label %58

37:                                               ; preds = %29
  %38 = getelementptr inbounds nuw %"struct.grpc_core::GrpcLbServer", ptr %8, i32 0, i32 3
  %39 = getelementptr inbounds [50 x i8], ptr %38, i64 0, i64 0
  %40 = load ptr, ptr %5, align 8, !tbaa !3
  %41 = getelementptr inbounds nuw %"struct.grpc_core::GrpcLbServer", ptr %40, i32 0, i32 3
  %42 = getelementptr inbounds [50 x i8], ptr %41, i64 0, i64 0
  %43 = call i32 @strncmp(ptr noundef %39, ptr noundef %42, i64 noundef 50) #20
  store i32 %43, ptr %6, align 4, !tbaa !12
  %44 = load i32, ptr %6, align 4, !tbaa !12
  %45 = icmp ne i32 %44, 0
  br i1 %45, label %46, label %47

46:                                               ; preds = %37
  store i1 false, ptr %3, align 1
  store i32 1, ptr %7, align 4
  br label %58

47:                                               ; preds = %37
  %48 = getelementptr inbounds nuw %"struct.grpc_core::GrpcLbServer", ptr %8, i32 0, i32 4
  %49 = load i8, ptr %48, align 2, !tbaa !14, !range !15, !noundef !16
  %50 = trunc i8 %49 to i1
  %51 = zext i1 %50 to i32
  %52 = load ptr, ptr %5, align 8, !tbaa !3
  %53 = getelementptr inbounds nuw %"struct.grpc_core::GrpcLbServer", ptr %52, i32 0, i32 4
  %54 = load i8, ptr %53, align 2, !tbaa !14, !range !15, !noundef !16
  %55 = trunc i8 %54 to i1
  %56 = zext i1 %55 to i32
  %57 = icmp eq i32 %51, %56
  store i1 %57, ptr %3, align 1
  store i32 1, ptr %7, align 4
  br label %58

58:                                               ; preds = %47, %46, %36, %28
  call void @llvm.lifetime.end.p0(i64 4, ptr %6) #3
  br label %59

59:                                               ; preds = %58, %15
  %60 = load i1, ptr %3, align 1
  ret i1 %60
}