; Function Attrs: mustprogress nofree nounwind willreturn memory(argmem: read) uwtable
define noundef zeroext i1 @_ZNK9grpc_core12GrpcLbServereqERKS0_(ptr noundef nonnull readonly align 4 captures(none) dereferenceable(76) %0, ptr noundef nonnull readonly align 4 captures(none) dereferenceable(76) %1) local_unnamed_addr #3 align 2 {
  %3 = load i32, ptr %0, align 4, !tbaa !3
  %4 = load i32, ptr %1, align 4, !tbaa !3
  %.not = icmp eq i32 %3, %4
  br i1 %.not, label %5, label %24

5:                                                ; preds = %2
  %6 = getelementptr inbounds nuw i8, ptr %0, i64 4
  %7 = getelementptr inbounds nuw i8, ptr %1, i64 4
  %8 = sext i32 %3 to i64
  %bcmp = tail call i32 @bcmp(ptr nonnull %6, ptr nonnull %7, i64 %8)
  %.not9 = icmp eq i32 %bcmp, 0
  br i1 %.not9, label %9, label %24

9:                                                ; preds = %5
  %10 = getelementptr inbounds nuw i8, ptr %0, i64 20
  %11 = load i32, ptr %10, align 4, !tbaa !9
  %12 = getelementptr inbounds nuw i8, ptr %1, i64 20
  %13 = load i32, ptr %12, align 4, !tbaa !9
  %.not10 = icmp eq i32 %11, %13
  br i1 %.not10, label %14, label %24

14:                                               ; preds = %9
  %15 = getelementptr inbounds nuw i8, ptr %0, i64 24
  %16 = getelementptr inbounds nuw i8, ptr %1, i64 24
  %17 = tail call i32 @strncmp(ptr noundef nonnull dereferenceable(1) %15, ptr noundef nonnull dereferenceable(1) %16, i64 noundef 50) #19
  %.not11 = icmp eq i32 %17, 0
  br i1 %.not11, label %18, label %24

18:                                               ; preds = %14
  %19 = getelementptr inbounds nuw i8, ptr %0, i64 74
  %20 = load i8, ptr %19, align 2, !tbaa !10, !range !11, !noundef !12
  %21 = getelementptr inbounds nuw i8, ptr %1, i64 74
  %22 = load i8, ptr %21, align 2, !tbaa !10, !range !11, !noundef !12
  %23 = icmp eq i8 %20, %22
  br label %24

24:                                               ; preds = %18, %5, %9, %14, %2
  %.0 = phi i1 [ false, %2 ], [ %23, %18 ], [ false, %5 ], [ false, %9 ], [ false, %14 ]
  ret i1 %.0
}